target datalayout = "e-m:e-p270:32:32-p271:32:32-p272:64:64-i64:64-i128:128-f80:128-n8:16:32:64-S128"
target triple = "x86_64-pc-linux-gnu"

; Function Attrs: mustprogress nounwind uwtable
define dso_local i32 @meshopt_decodeIndexVersion(ptr noundef %0, i64 noundef %1) #3 {
  %3 = alloca i32, align 4
  %4 = alloca ptr, align 8
  %5 = alloca i64, align 8
  %6 = alloca i8, align 1
  %7 = alloca i32, align 4
  %8 = alloca i32, align 4
  store ptr %0, ptr %4, align 8, !tbaa !4
  store i64 %1, ptr %5, align 8, !tbaa !9
  %9 = load i64, ptr %5, align 8, !tbaa !9
  %10 = icmp ult i64 %9, 1
  br i1 %10, label %11, label %12

11:                                               ; preds = %2
  store i32 -1, ptr %3, align 4
  br label %37

12:                                               ; preds = %2
  call void @llvm.lifetime.start.p0(i64 1, ptr %6) #4
  %13 = load ptr, ptr %4, align 8, !tbaa !4
  %14 = getelementptr inbounds i8, ptr %13, i64 0
  %15 = load i8, ptr %14, align 1, !tbaa !15
  store i8 %15, ptr %6, align 1, !tbaa !15
  %16 = load i8, ptr %6, align 1, !tbaa !15
  %17 = zext i8 %16 to i32
  %18 = and i32 %17, 240
  %19 = icmp ne i32 %18, 224
  br i1 %19, label %20, label %26

20:                                               ; preds = %12
  %21 = load i8, ptr %6, align 1, !tbaa !15
  %22 = zext i8 %21 to i32
  %23 = and i32 %22, 240
  %24 = icmp ne i32 %23, 208
  br i1 %24, label %25, label %26

25:                                               ; preds = %20
  store i32 -1, ptr %3, align 4
  store i32 1, ptr %7, align 4
  br label %36

26:                                               ; preds = %20, %12
  call void @llvm.lifetime.start.p0(i64 4, ptr %8) #4
  %27 = load i8, ptr %6, align 1, !tbaa !15
  %28 = zext i8 %27 to i32
  %29 = and i32 %28, 15
  store i32 %29, ptr %8, align 4, !tbaa !13
  %30 = load i32, ptr %8, align 4, !tbaa !13
  %31 = icmp sgt i32 %30, 1
  br i1 %31, label %32, label %33

32:                                               ; preds = %26
  store i32 -1, ptr %3, align 4
  store i32 1, ptr %7, align 4
  br label %35

33:                                               ; preds = %26
  %34 = load i32, ptr %8, align 4, !tbaa !13
  store i32 %34, ptr %3, align 4
  store i32 1, ptr %7, align 4
  br label %35

35:                                               ; preds = %33, %32
  call void @llvm.lifetime.end.p0(i64 4, ptr %8) #4
  br label %36

36:                                               ; preds = %35, %25
  call void @llvm.lifetime.end.p0(i64 1, ptr %6) #4
  br label %37

37:                                               ; preds = %36, %11
  %38 = load i32, ptr %3, align 4
  ret i32 %38
}