; Function Attrs: mustprogress nofree norecurse nosync nounwind willreturn memory(argmem: read) uwtable
define dso_local range(i32 -1, 2) i32 @meshopt_decodeIndexVersion(ptr noundef readonly captures(none) %0, i64 noundef %1) local_unnamed_addr #5 {
  %3 = icmp eq i64 %1, 0
  br i1 %3, label %10, label %4

4:                                                ; preds = %2
  %5 = load i8, ptr %0, align 1, !tbaa !8
  %trunc = and i8 %5, -16
  switch i8 %trunc, label %10 [
    i8 -32, label %6
    i8 -48, label %6
  ]

6:                                                ; preds = %4, %4
  %7 = and i8 %5, 15
  %8 = zext nneg i8 %7 to i32
  %9 = icmp samesign ugt i8 %7, 1
  %. = select i1 %9, i32 -1, i32 %8
  br label %10

10:                                               ; preds = %6, %4, %2
  %.0 = phi i32 [ -1, %2 ], [ %., %6 ], [ -1, %4 ]
  ret i32 %.0
}